; Function Attrs: mustprogress uwtable
define void @_ZNK4cvc58internal7Printer8toStreamERSoNS0_12NodeTemplateILb0EEEPKNS0_10LetBindingE(ptr noundef nonnull align 8 dereferenceable(8) %this, ptr noundef nonnull align 8 dereferenceable(8) %out, ptr nocapture noundef readonly %n, ptr noundef %lbind) unnamed_addr #4 align 2 personality ptr @__gxx_personality_v0 {
entry:
  %nc = alloca %"class.cvc5::internal::NodeTemplate.2", align 8
  %agg.tmp = alloca %"class.cvc5::internal::NodeTemplate.2", align 8
  %agg.tmp2 = alloca %"class.cvc5::internal::NodeTemplate", align 8
  %agg.tmp7 = alloca %"class.cvc5::internal::NodeTemplate", align 8
  %cmp.not = icmp eq ptr %lbind, null
  %0 = load ptr, ptr %n, align 8
  br i1 %cmp.not, label %if.else, label %if.then

if.then:                                          ; preds = %entry
  store ptr %0, ptr %agg.tmp, align 8
  %bf.load.i.i = load i64, ptr %0, align 8
  %bf.lshr.i.i = lshr i64 %bf.load.i.i, 40
  %1 = trunc i64 %bf.lshr.i.i to i32
  %bf.cast.i.i = and i32 %1, 1048575
  %cmp.i.i = icmp ult i32 %bf.cast.i.i, 1048574
  br i1 %cmp.i.i, label %if.then.i.i, label %if.else.i.i

if.then.i.i:                                      ; preds = %if.then
  %bf.value.i.i = add i64 %bf.load.i.i, 1099511627776
  %bf.shl.i.i = and i64 %bf.value.i.i, 1152920405095219200
  %bf.clear7.i.i = and i64 %bf.load.i.i, -1152920405095219201
  %bf.set.i.i = or disjoint i64 %bf.shl.i.i, %bf.clear7.i.i
  store i64 %bf.set.i.i, ptr %0, align 8
  br label %_ZN4cvc58internal12NodeTemplateILb1EEC2ERKNS1_ILb0EEE.exit

if.else.i.i:                                      ; preds = %if.then
  %cmp12.i.i = icmp eq i32 %bf.cast.i.i, 1048574
  br i1 %cmp12.i.i, label %if.then13.i.i, label %_ZN4cvc58internal12NodeTemplateILb1EEC2ERKNS1_ILb0EEE.exit

if.then13.i.i:                                    ; preds = %if.else.i.i
  %bf.set23.i.i = or i64 %bf.load.i.i, 1152920405095219200
  store i64 %bf.set23.i.i, ptr %0, align 8
  tail call void @_ZN4cvc58internal4expr9NodeValue20markRefCountMaxedOutEv(ptr noundef nonnull align 8 dereferenceable(16) %0)
  br label %_ZN4cvc58internal12NodeTemplateILb1EEC2ERKNS1_ILb0EEE.exit

_ZN4cvc58internal12NodeTemplateILb1EEC2ERKNS1_ILb0EEE.exit: ; preds = %if.then.i.i, %if.else.i.i, %if.then13.i.i
  invoke void @_ZNK4cvc58internal10LetBinding7convertENS0_12NodeTemplateILb1EEEb(ptr nonnull sret(%"class.cvc5::internal::NodeTemplate.2") align 8 %nc, ptr noundef nonnull align 8 dereferenceable(472) %lbind, ptr noundef nonnull %agg.tmp, i1 noundef zeroext true)
          to label %invoke.cont unwind label %lpad

invoke.cont:                                      ; preds = %_ZN4cvc58internal12NodeTemplateILb1EEC2ERKNS1_ILb0EEE.exit
  %2 = load ptr, ptr %agg.tmp, align 8
  %bf.load.i.i4 = load i64, ptr %2, align 8
  %3 = and i64 %bf.load.i.i4, 1152920405095219200
  %cmp.not.i.i = icmp eq i64 %3, 1152920405095219200
  br i1 %cmp.not.i.i, label %_ZN4cvc58internal12NodeTemplateILb1EED2Ev.exit, label %if.then.i.i5

if.then.i.i5:                                     ; preds = %invoke.cont
  %bf.value.i.i6 = add i64 %bf.load.i.i4, 1152920405095219200
  %bf.shl.i.i7 = and i64 %bf.value.i.i6, 1152920405095219200
  %bf.clear7.i.i8 = and i64 %bf.load.i.i4, -1152920405095219201
  %bf.set.i.i9 = or disjoint i64 %bf.shl.i.i7, %bf.clear7.i.i8
  store i64 %bf.set.i.i9, ptr %2, align 8
  %cmp12.i.i10 = icmp eq i64 %bf.shl.i.i7, 0
  br i1 %cmp12.i.i10, label %if.then13.i.i11, label %_ZN4cvc58internal12NodeTemplateILb1EED2Ev.exit

if.then13.i.i11:                                  ; preds = %if.then.i.i5
  invoke void @_ZN4cvc58internal4expr9NodeValue15markForDeletionEv(ptr noundef nonnull align 8 dereferenceable(16) %2)
          to label %_ZN4cvc58internal12NodeTemplateILb1EED2Ev.exit unwind label %terminate.lpad.i

terminate.lpad.i:                                 ; preds = %if.then13.i.i11
  %4 = landingpad { ptr, i32 }
          catch ptr null
  %5 = extractvalue { ptr, i32 } %4, 0
  call void @__clang_call_terminate(ptr %5) #18
  unreachable

_ZN4cvc58internal12NodeTemplateILb1EED2Ev.exit:   ; preds = %invoke.cont, %if.then.i.i5, %if.then13.i.i11
  %6 = load ptr, ptr %nc, align 8
  store ptr %6, ptr %agg.tmp2, align 8
  %vtable = load ptr, ptr %this, align 8
  %vfn = getelementptr inbounds i8, ptr %vtable, i64 16
  %7 = load ptr, ptr %vfn, align 8
  invoke void %7(ptr noundef nonnull align 8 dereferenceable(8) %this, ptr noundef nonnull align 8 dereferenceable(8) %out, ptr noundef nonnull %agg.tmp2)
          to label %invoke.cont6 unwind label %lpad5

invoke.cont6:                                     ; preds = %_ZN4cvc58internal12NodeTemplateILb1EED2Ev.exit
  %8 = load ptr, ptr %nc, align 8
  %bf.load.i.i12 = load i64, ptr %8, align 8
  %9 = and i64 %bf.load.i.i12, 1152920405095219200
  %cmp.not.i.i13 = icmp eq i64 %9, 1152920405095219200
  br i1 %cmp.not.i.i13, label %if.end, label %if.then.i.i14

if.then.i.i14:                                    ; preds = %invoke.cont6
  %bf.value.i.i15 = add i64 %bf.load.i.i12, 1152920405095219200
  %bf.shl.i.i16 = and i64 %bf.value.i.i15, 1152920405095219200
  %bf.clear7.i.i17 = and i64 %bf.load.i.i12, -1152920405095219201
  %bf.set.i.i18 = or disjoint i64 %bf.shl.i.i16, %bf.clear7.i.i17
  store i64 %bf.set.i.i18, ptr %8, align 8
  %cmp12.i.i19 = icmp eq i64 %bf.shl.i.i16, 0
  br i1 %cmp12.i.i19, label %if.then13.i.i20, label %if.end

if.then13.i.i20:                                  ; preds = %if.then.i.i14
  invoke void @_ZN4cvc58internal4expr9NodeValue15markForDeletionEv(ptr noundef nonnull align 8 dereferenceable(16) %8)
          to label %if.end unwind label %terminate.lpad.i21

terminate.lpad.i21:                               ; preds = %if.then13.i.i20
  %10 = landingpad { ptr, i32 }
          catch ptr null
  %11 = extractvalue { ptr, i32 } %10, 0
  call void @__clang_call_terminate(ptr %11) #18
  unreachable

lpad:                                             ; preds = %_ZN4cvc58internal12NodeTemplateILb1EEC2ERKNS1_ILb0EEE.exit
  %12 = landingpad { ptr, i32 }
          cleanup
  br label %eh.resume

lpad5:                                            ; preds = %_ZN4cvc58internal12NodeTemplateILb1EED2Ev.exit
  %13 = landingpad { ptr, i32 }
          cleanup
  br label %eh.resume

if.else:                                          ; preds = %entry
  store ptr %0, ptr %agg.tmp7, align 8
  %vtable8 = load ptr, ptr %this, align 8
  %vfn9 = getelementptr inbounds i8, ptr %vtable8, i64 16
  %14 = load ptr, ptr %vfn9, align 8
  call void %14(ptr noundef nonnull align 8 dereferenceable(8) %this, ptr noundef nonnull align 8 dereferenceable(8) %out, ptr noundef nonnull %agg.tmp7)
  br label %if.end

if.end:                                           ; preds = %if.else, %if.then13.i.i20, %if.then.i.i14, %invoke.cont6
  ret void

eh.resume:                                        ; preds = %lpad5, %lpad
  %nc.sink = phi ptr [ %nc, %lpad5 ], [ %agg.tmp, %lpad ]
  %.pn = phi { ptr, i32 } [ %13, %lpad5 ], [ %12, %lpad ]
  call void @_ZN4cvc58internal12NodeTemplateILb1EED2Ev(ptr noundef nonnull align 8 dereferenceable(8) %nc.sink) #16
  resume { ptr, i32 } %.pn
}